; Function Attrs: mustprogress uwtable
define void @_ZN5Ipopt11DenseVector9CopyToPosEiRKNS_6VectorE(ptr noundef nonnull align 8 dereferenceable(248) %0, i32 noundef %1, ptr nocapture noundef nonnull readonly align 8 dereferenceable(205) %2) local_unnamed_addr #0 align 2 {
  %4 = getelementptr inbounds i8, ptr %2, i64 56
  %5 = load ptr, ptr %4, align 8
  %6 = getelementptr inbounds i8, ptr %5, i64 12
  %7 = load i32, ptr %6, align 4
  %8 = getelementptr inbounds i8, ptr %0, i64 216
  %9 = load ptr, ptr %8, align 8
  %10 = icmp eq ptr %9, null
  br i1 %10, label %11, label %_ZN5Ipopt11DenseVector16values_allocatedEv.exit

11:                                               ; preds = %3
  %12 = getelementptr inbounds i8, ptr %0, i64 208
  %13 = load ptr, ptr %12, align 8
  %14 = getelementptr inbounds i8, ptr %13, i64 12
  %15 = load i32, ptr %14, align 4
  %16 = icmp sgt i32 %15, 0
  br i1 %16, label %17, label %_ZNK5Ipopt16DenseVectorSpace23AllocateInternalStorageEv.exit.i

17:                                               ; preds = %11
  %18 = zext nneg i32 %15 to i64
  %19 = shl nuw nsw i64 %18, 3
  %20 = tail call noalias noundef nonnull ptr @_Znam(i64 noundef %19) #18
  br label %_ZNK5Ipopt16DenseVectorSpace23AllocateInternalStorageEv.exit.i

_ZNK5Ipopt16DenseVectorSpace23AllocateInternalStorageEv.exit.i: ; preds = %17, %11
  %.0.i.i = phi ptr [ %20, %17 ], [ null, %11 ]
  store ptr %.0.i.i, ptr %8, align 8
  br label %_ZN5Ipopt11DenseVector16values_allocatedEv.exit

_ZN5Ipopt11DenseVector16values_allocatedEv.exit:  ; preds = %3, %_ZNK5Ipopt16DenseVectorSpace23AllocateInternalStorageEv.exit.i
  %21 = phi ptr [ %.0.i.i, %_ZNK5Ipopt16DenseVectorSpace23AllocateInternalStorageEv.exit.i ], [ %9, %3 ]
  %22 = getelementptr inbounds i8, ptr %0, i64 233
  store i8 0, ptr %22, align 1
  %23 = getelementptr inbounds i8, ptr %2, i64 233
  %24 = load i8, ptr %23, align 1
  %25 = and i8 %24, 1
  %.not = icmp eq i8 %25, 0
  br i1 %.not, label %30, label %26

26:                                               ; preds = %_ZN5Ipopt11DenseVector16values_allocatedEv.exit
  %27 = getelementptr inbounds i8, ptr %0, i64 240
  %28 = sext i32 %1 to i64
  %29 = getelementptr inbounds double, ptr %21, i64 %28
  tail call void @_ZN5Ipopt10IpBlasCopyEiPKdiPdi(i32 noundef %7, ptr noundef nonnull %27, i32 noundef 0, ptr noundef %29, i32 noundef 1)
  br label %35

30:                                               ; preds = %_ZN5Ipopt11DenseVector16values_allocatedEv.exit
  %31 = getelementptr inbounds i8, ptr %2, i64 216
  %32 = load ptr, ptr %31, align 8
  %33 = sext i32 %1 to i64
  %34 = getelementptr inbounds double, ptr %21, i64 %33
  tail call void @_ZN5Ipopt10IpBlasCopyEiPKdiPdi(i32 noundef %7, ptr noundef %32, i32 noundef 1, ptr noundef %34, i32 noundef 1)
  br label %35

35:                                               ; preds = %30, %26
  %36 = getelementptr inbounds i8, ptr %0, i64 232
  store i8 1, ptr %36, align 8
  tail call void @_ZN5Ipopt12TaggedObject13ObjectChangedEv(ptr noundef nonnull align 8 dereferenceable(56) %0)
  ret void
}